target datalayout = "e-m:e-p270:32:32-p271:32:32-p272:64:64-i64:64-i128:128-f80:128-n8:16:32:64-S128"
target triple = "x86_64-pc-linux-gnu"

%struct.slurm_conf_t = type { i64, ptr, i16, ptr, ptr, ptr, ptr, ptr, i16, ptr, ptr, ptr, ptr, ptr, ptr, ptr, i16, ptr, ptr, ptr, ptr, i16, ptr, ptr, ptr, i64, ptr, ptr, ptr, ptr, i16, ptr, ptr, i16, i32, ptr, i32, ptr, i32, i32, ptr, ptr, i64, i64, ptr, i16, i16, ptr, i32, i32, ptr, i32, ptr, i32, i16, i16, i16, ptr, i16, i16, ptr, ptr, i32, i16, i16, ptr, i32, i16, ptr, ptr, ptr, ptr, i16, ptr, ptr, ptr, ptr, i32, ptr, ptr, ptr, ptr, i16, i16, ptr, i32, i32, i32, i16, i16, ptr, ptr, i16, ptr, ptr, i32, i32, i32, i32, i32, i64, i32, i32, i16, ptr, ptr, i32, ptr, ptr, ptr, i16, i32, ptr, ptr, i16, ptr, ptr, i32, i16, ptr, ptr, ptr, ptr, i32, i32, i16, i16, i32, ptr, i16, ptr, i32, i32, i32, i32, i32, i32, ptr, i16, ptr, ptr, i32, i16, ptr, i32, i16, i16, ptr, ptr, ptr, i16, ptr, ptr, ptr, ptr, i16, i16, ptr, i16, ptr, i16, ptr, i16, ptr, i16, ptr, ptr, ptr, ptr, i16, ptr, ptr, ptr, i32, ptr, i32, ptr, ptr, i16, ptr, ptr, i32, i16, ptr, ptr, i16, i16, ptr, i16, ptr, ptr, ptr, i32, ptr, i16, i16, ptr, ptr, ptr, ptr, ptr, ptr, ptr, ptr, i16, i32, i16, ptr, ptr, ptr, ptr, i32, ptr, ptr, ptr, i16, ptr, ptr, ptr, i16, ptr, i16, ptr, i16, i16, ptr }

@.str.14 = private unnamed_addr constant [8 x i8] c"energy=\00", align 1
@.str.15 = private unnamed_addr constant [6 x i8] c"task=\00", align 1
@.str.16 = private unnamed_addr constant [12 x i8] c"filesystem=\00", align 1
@.str.17 = private unnamed_addr constant [9 x i8] c"network=\00", align 1
@.str.18 = private unnamed_addr constant [87 x i8] c"Unhandled profile option %d please update slurm_acct_gather.c (acct_gather_parse_freq)\00", align 1
@acct_gather_check_acct_freq_task.acct_freq_task = internal global i32 -2, align 4
@slurm_conf = external global %struct.slurm_conf_t, align 8
@.str.19 = private unnamed_addr constant [74 x i8] c"Can't turn accounting frequency off.  We need it to monitor memory usage.\00", align 1
@.str.20 = private unnamed_addr constant [115 x i8] c"Can't set frequency to %d, it is higher than %u.  We need it to be at least at this level to monitor memory usage.\00", align 1

; Function Attrs: nounwind uwtable
define internal i32 @_get_int(ptr noundef %0) #0 {
  %2 = alloca i32, align 4
  %3 = alloca ptr, align 8
  %4 = alloca ptr, align 8
  %5 = alloca i32, align 4
  %6 = alloca i32, align 4
  store ptr %0, ptr %3, align 8
  call void @llvm.lifetime.start.p0(i64 8, ptr %4) #6
  store ptr null, ptr %4, align 8
  call void @llvm.lifetime.start.p0(i64 4, ptr %5) #6
  %7 = load ptr, ptr %3, align 8
  %8 = icmp ne ptr %7, null
  br i1 %8, label %10, label %9

9:                                                ; preds = %1
  store i32 -1, ptr %2, align 4
  store i32 1, ptr %6, align 4
  br label %20

10:                                               ; preds = %1
  %11 = load ptr, ptr %3, align 8
  %12 = call i64 @strtol(ptr noundef %11, ptr noundef %4, i32 noundef 10) #6
  %13 = trunc i64 %12 to i32
  store i32 %13, ptr %5, align 4
  %14 = load ptr, ptr %3, align 8
  %15 = load ptr, ptr %4, align 8
  %16 = icmp eq ptr %14, %15
  br i1 %16, label %17, label %18

17:                                               ; preds = %10
  store i32 -1, ptr %2, align 4
  store i32 1, ptr %6, align 4
  br label %20

18:                                               ; preds = %10
  %19 = load i32, ptr %5, align 4
  store i32 %19, ptr %2, align 4
  store i32 1, ptr %6, align 4
  br label %20

20:                                               ; preds = %18, %17, %9
  call void @llvm.lifetime.end.p0(i64 4, ptr %5) #6
  call void @llvm.lifetime.end.p0(i64 8, ptr %4) #6
  %21 = load i32, ptr %2, align 4
  ret i32 %21
}

; Function Attrs: nounwind uwtable
define dso_local i32 @acct_gather_parse_freq(i32 noundef %0, ptr noundef %1) #0 {
  %3 = alloca i32, align 4
  %4 = alloca i32, align 4
  %5 = alloca ptr, align 8
  %6 = alloca i32, align 4
  %7 = alloca ptr, align 8
  %8 = alloca i32, align 4
  store i32 %0, ptr %4, align 4
  store ptr %1, ptr %5, align 8
  call void @llvm.lifetime.start.p0(i64 4, ptr %6) #6
  store i32 -1, ptr %6, align 4
  call void @llvm.lifetime.start.p0(i64 8, ptr %7) #6
  store ptr null, ptr %7, align 8
  %9 = load ptr, ptr %5, align 8
  %10 = icmp ne ptr %9, null
  br i1 %10, label %13, label %11

11:                                               ; preds = %2
  %12 = load i32, ptr %6, align 4
  store i32 %12, ptr %3, align 4
  store i32 1, ptr %8, align 4
  br label %60

13:                                               ; preds = %2
  %14 = load i32, ptr %4, align 4
  switch i32 %14, label %56 [
    i32 0, label %15
    i32 1, label %24
    i32 2, label %38
    i32 3, label %47
  ]

15:                                               ; preds = %13
  %16 = load ptr, ptr %5, align 8
  %17 = call ptr @xstrcasestr(ptr noundef %16, ptr noundef @.str.14)
  store ptr %17, ptr %7, align 8
  %18 = icmp ne ptr %17, null
  br i1 %18, label %19, label %23

19:                                               ; preds = %15
  %20 = load ptr, ptr %7, align 8
  %21 = getelementptr inbounds i8, ptr %20, i64 7
  %22 = call i32 @_get_int(ptr noundef %21)
  store i32 %22, ptr %6, align 4
  br label %23

23:                                               ; preds = %19, %15
  br label %58

24:                                               ; preds = %13
  %25 = load ptr, ptr %5, align 8
  %26 = call i32 @_get_int(ptr noundef %25)
  store i32 %26, ptr %6, align 4
  %27 = load i32, ptr %6, align 4
  %28 = icmp eq i32 %27, -1
  br i1 %28, label %29, label %37

29:                                               ; preds = %24
  %30 = load ptr, ptr %5, align 8
  %31 = call ptr @xstrcasestr(ptr noundef %30, ptr noundef @.str.15)
  store ptr %31, ptr %7, align 8
  %32 = icmp ne ptr %31, null
  br i1 %32, label %33, label %37

33:                                               ; preds = %29
  %34 = load ptr, ptr %7, align 8
  %35 = getelementptr inbounds i8, ptr %34, i64 5
  %36 = call i32 @_get_int(ptr noundef %35)
  store i32 %36, ptr %6, align 4
  br label %37

37:                                               ; preds = %33, %29, %24
  br label %58

38:                                               ; preds = %13
  %39 = load ptr, ptr %5, align 8
  %40 = call ptr @xstrcasestr(ptr noundef %39, ptr noundef @.str.16)
  store ptr %40, ptr %7, align 8
  %41 = icmp ne ptr %40, null
  br i1 %41, label %42, label %46

42:                                               ; preds = %38
  %43 = load ptr, ptr %7, align 8
  %44 = getelementptr inbounds i8, ptr %43, i64 11
  %45 = call i32 @_get_int(ptr noundef %44)
  store i32 %45, ptr %6, align 4
  br label %46

46:                                               ; preds = %42, %38
  br label %58

47:                                               ; preds = %13
  %48 = load ptr, ptr %5, align 8
  %49 = call ptr @xstrcasestr(ptr noundef %48, ptr noundef @.str.17)
  store ptr %49, ptr %7, align 8
  %50 = icmp ne ptr %49, null
  br i1 %50, label %51, label %55

51:                                               ; preds = %47
  %52 = load ptr, ptr %7, align 8
  %53 = getelementptr inbounds i8, ptr %52, i64 8
  %54 = call i32 @_get_int(ptr noundef %53)
  store i32 %54, ptr %6, align 4
  br label %55

55:                                               ; preds = %51, %47
  br label %58

56:                                               ; preds = %13
  %57 = load i32, ptr %4, align 4
  call void (ptr, ...) @fatal(ptr noundef @.str.18, i32 noundef %57) #7
  unreachable

58:                                               ; preds = %55, %46, %37, %23
  %59 = load i32, ptr %6, align 4
  store i32 %59, ptr %3, align 4
  store i32 1, ptr %8, align 4
  br label %60

60:                                               ; preds = %58, %11
  call void @llvm.lifetime.end.p0(i64 8, ptr %7) #6
  call void @llvm.lifetime.end.p0(i64 4, ptr %6) #6
  %61 = load i32, ptr %3, align 4
  ret i32 %61
}

; Function Attrs: nounwind uwtable
define dso_local i32 @acct_gather_check_acct_freq_task(i64 noundef %0, ptr noundef %1) #0 {
  %3 = alloca i32, align 4
  %4 = alloca i64, align 8
  %5 = alloca ptr, align 8
  %6 = alloca i32, align 4
  %7 = alloca i32, align 4
  %8 = alloca i32, align 4
  store i64 %0, ptr %4, align 8
  store ptr %1, ptr %5, align 8
  call void @llvm.lifetime.start.p0(i64 4, ptr %6) #6
  %9 = load i32, ptr @acct_gather_check_acct_freq_task.acct_freq_task, align 4
  %10 = icmp eq i32 %9, -2
  br i1 %10, label %11, label %20

11:                                               ; preds = %2
  call void @llvm.lifetime.start.p0(i64 4, ptr %7) #6
  %12 = load ptr, ptr getelementptr inbounds nuw (%struct.slurm_conf_t, ptr @slurm_conf, i32 0, i32 69), align 8
  %13 = call i32 @acct_gather_parse_freq(i32 noundef 1, ptr noundef %12)
  store i32 %13, ptr %7, align 4
  %14 = load i32, ptr %7, align 4
  %15 = icmp eq i32 %14, -1
  br i1 %15, label %16, label %17

16:                                               ; preds = %11
  store i32 65534, ptr @acct_gather_check_acct_freq_task.acct_freq_task, align 4
  br label %19

17:                                               ; preds = %11
  %18 = load i32, ptr %7, align 4
  store i32 %18, ptr @acct_gather_check_acct_freq_task.acct_freq_task, align 4
  br label %19

19:                                               ; preds = %17, %16
  call void @llvm.lifetime.end.p0(i64 4, ptr %7) #6
  br label %20

20:                                               ; preds = %19, %2
  %21 = load i64, ptr %4, align 8
  %22 = icmp ne i64 %21, 0
  br i1 %22, label %23, label %26

23:                                               ; preds = %20
  %24 = load i32, ptr @acct_gather_check_acct_freq_task.acct_freq_task, align 4
  %25 = icmp ne i32 %24, 0
  br i1 %25, label %27, label %26

26:                                               ; preds = %23, %20
  store i32 0, ptr %3, align 4
  store i32 1, ptr %8, align 4
  br label %50

27:                                               ; preds = %23
  %28 = load ptr, ptr %5, align 8
  %29 = call i32 @acct_gather_parse_freq(i32 noundef 1, ptr noundef %28)
  store i32 %29, ptr %6, align 4
  %30 = load i32, ptr %6, align 4
  %31 = icmp eq i32 %30, -1
  br i1 %31, label %32, label %33

32:                                               ; preds = %27
  store i32 0, ptr %3, align 4
  store i32 1, ptr %8, align 4
  br label %50

33:                                               ; preds = %27
  %34 = load i32, ptr %6, align 4
  %35 = icmp eq i32 %34, 0
  br i1 %35, label %36, label %39

36:                                               ; preds = %33
  %37 = call i32 (ptr, ...) @error(ptr noundef @.str.19)
  %38 = call ptr @__errno_location() #8
  store i32 4003, ptr %38, align 4
  store i32 1, ptr %3, align 4
  store i32 1, ptr %8, align 4
  br label %50

39:                                               ; preds = %33
  %40 = load i32, ptr %6, align 4
  %41 = load i32, ptr @acct_gather_check_acct_freq_task.acct_freq_task, align 4
  %42 = icmp ugt i32 %40, %41
  br i1 %42, label %43, label %48

43:                                               ; preds = %39
  %44 = load i32, ptr %6, align 4
  %45 = load i32, ptr @acct_gather_check_acct_freq_task.acct_freq_task, align 4
  %46 = call i32 (ptr, ...) @error(ptr noundef @.str.20, i32 noundef %44, i32 noundef %45)
  %47 = call ptr @__errno_location() #8
  store i32 4003, ptr %47, align 4
  store i32 1, ptr %3, align 4
  store i32 1, ptr %8, align 4
  br label %50

48:                                               ; preds = %39
  br label %49

49:                                               ; preds = %48
  store i32 0, ptr %3, align 4
  store i32 1, ptr %8, align 4
  br label %50

50:                                               ; preds = %49, %43, %36, %32, %26
  call void @llvm.lifetime.end.p0(i64 4, ptr %6) #6
  %51 = load i32, ptr %3, align 4
  ret i32 %51
}