; Function Attrs: nounwind uwtable
define dso_local range(i32 0, 2) i32 @acct_gather_check_acct_freq_task(i64 noundef %0, ptr noundef %1) local_unnamed_addr #0 {
  %3 = alloca ptr, align 8
  %4 = alloca ptr, align 8
  %5 = alloca ptr, align 8
  %6 = alloca ptr, align 8
  %7 = load i32, ptr @acct_gather_check_acct_freq_task.acct_freq_task, align 4
  %8 = icmp eq i32 %7, -2
  br i1 %8, label %9, label %28

9:                                                ; preds = %2
  %10 = load ptr, ptr getelementptr inbounds nuw (i8, ptr @slurm_conf, i64 472), align 8
  %.not.i = icmp eq ptr %10, null
  br i1 %.not.i, label %acct_gather_parse_freq.exit.thread, label %11

11:                                               ; preds = %9
  call void @llvm.lifetime.start.p0(i64 8, ptr nonnull %6) #9
  store ptr null, ptr %6, align 8
  %12 = call i64 @strtol(ptr noundef nonnull %10, ptr noundef nonnull %6, i32 noundef 10) #9
  %13 = load ptr, ptr %6, align 8
  %14 = icmp eq ptr %10, %13
  %15 = trunc i64 %12 to i32
  call void @llvm.lifetime.end.p0(i64 8, ptr nonnull %6) #9
  %16 = icmp eq i32 %15, -1
  %17 = select i1 %14, i1 true, i1 %16
  br i1 %17, label %18, label %acct_gather_parse_freq.exit.thread19

18:                                               ; preds = %11
  %19 = tail call ptr @xstrcasestr(ptr noundef nonnull %10, ptr noundef nonnull @.str.15) #9
  %.not24.i = icmp eq ptr %19, null
  br i1 %.not24.i, label %acct_gather_parse_freq.exit.thread, label %20

20:                                               ; preds = %18
  %21 = getelementptr inbounds nuw i8, ptr %19, i64 5
  call void @llvm.lifetime.start.p0(i64 8, ptr nonnull %5) #9
  store ptr null, ptr %5, align 8
  %22 = call i64 @strtol(ptr noundef nonnull %21, ptr noundef nonnull %5, i32 noundef 10) #9
  %23 = load ptr, ptr %5, align 8
  %24 = icmp eq ptr %21, %23
  call void @llvm.lifetime.end.p0(i64 8, ptr nonnull %5) #9
  %.fr25 = freeze i64 %22
  %25 = trunc i64 %.fr25 to i32
  %26 = icmp eq i32 %25, -1
  %or.cond = or i1 %24, %26
  br i1 %or.cond, label %acct_gather_parse_freq.exit.thread, label %acct_gather_parse_freq.exit.thread19

acct_gather_parse_freq.exit.thread:               ; preds = %20, %18, %9
  br label %acct_gather_parse_freq.exit.thread19

acct_gather_parse_freq.exit.thread19:             ; preds = %20, %11, %acct_gather_parse_freq.exit.thread
  %27 = phi i32 [ 65534, %acct_gather_parse_freq.exit.thread ], [ %15, %11 ], [ %25, %20 ]
  store i32 %27, ptr @acct_gather_check_acct_freq_task.acct_freq_task, align 4
  br label %28

28:                                               ; preds = %acct_gather_parse_freq.exit.thread19, %2
  %29 = phi i32 [ %27, %acct_gather_parse_freq.exit.thread19 ], [ %7, %2 ]
  %30 = icmp eq i64 %0, 0
  %31 = icmp eq i32 %29, 0
  %or.cond.not27 = select i1 %30, i1 true, i1 %31
  %.not.i12 = icmp eq ptr %1, null
  %or.cond24 = or i1 %.not.i12, %or.cond.not27
  br i1 %or.cond24, label %acct_gather_parse_freq.exit16.thread, label %32

32:                                               ; preds = %28
  call void @llvm.lifetime.start.p0(i64 8, ptr nonnull %4) #9
  store ptr null, ptr %4, align 8
  %33 = call i64 @strtol(ptr noundef nonnull %1, ptr noundef nonnull %4, i32 noundef 10) #9
  %34 = load ptr, ptr %4, align 8
  %35 = icmp eq ptr %1, %34
  %36 = trunc i64 %33 to i32
  call void @llvm.lifetime.end.p0(i64 8, ptr nonnull %4) #9
  %37 = icmp eq i32 %36, -1
  %38 = select i1 %35, i1 true, i1 %37
  br i1 %38, label %39, label %acct_gather_parse_freq.exit16

39:                                               ; preds = %32
  %40 = tail call ptr @xstrcasestr(ptr noundef nonnull %1, ptr noundef nonnull @.str.15) #9
  %.not24.i14 = icmp eq ptr %40, null
  br i1 %.not24.i14, label %acct_gather_parse_freq.exit16.thread, label %41

41:                                               ; preds = %39
  %42 = getelementptr inbounds nuw i8, ptr %40, i64 5
  call void @llvm.lifetime.start.p0(i64 8, ptr nonnull %3) #9
  store ptr null, ptr %3, align 8
  %43 = call i64 @strtol(ptr noundef nonnull %42, ptr noundef nonnull %3, i32 noundef 10) #9
  %44 = load ptr, ptr %3, align 8
  %45 = icmp eq ptr %42, %44
  %46 = trunc i64 %43 to i32
  call void @llvm.lifetime.end.p0(i64 8, ptr nonnull %3) #9
  br i1 %45, label %acct_gather_parse_freq.exit16.thread, label %acct_gather_parse_freq.exit16

acct_gather_parse_freq.exit16:                    ; preds = %41, %32
  %.015.i13 = phi i32 [ %46, %41 ], [ %36, %32 ]
  switch i32 %.015.i13, label %49 [
    i32 -1, label %acct_gather_parse_freq.exit16.thread
    i32 0, label %47
  ]

47:                                               ; preds = %acct_gather_parse_freq.exit16
  %48 = tail call i32 (ptr, ...) @error(ptr noundef nonnull @.str.19) #9
  br label %acct_gather_parse_freq.exit16.thread.sink.split

49:                                               ; preds = %acct_gather_parse_freq.exit16
  %50 = load i32, ptr @acct_gather_check_acct_freq_task.acct_freq_task, align 4
  %51 = icmp ugt i32 %.015.i13, %50
  br i1 %51, label %52, label %acct_gather_parse_freq.exit16.thread

52:                                               ; preds = %49
  %53 = tail call i32 (ptr, ...) @error(ptr noundef nonnull @.str.20, i32 noundef %.015.i13, i32 noundef %50) #9
  br label %acct_gather_parse_freq.exit16.thread.sink.split

acct_gather_parse_freq.exit16.thread.sink.split:  ; preds = %47, %52
  %54 = tail call ptr @__errno_location() #11
  store i32 4003, ptr %54, align 4
  br label %acct_gather_parse_freq.exit16.thread

acct_gather_parse_freq.exit16.thread:             ; preds = %acct_gather_parse_freq.exit16.thread.sink.split, %41, %39, %49, %acct_gather_parse_freq.exit16, %28
  %.0 = phi i32 [ 0, %28 ], [ 0, %acct_gather_parse_freq.exit16 ], [ 0, %49 ], [ 0, %39 ], [ 0, %41 ], [ 1, %acct_gather_parse_freq.exit16.thread.sink.split ]
  ret i32 %.0
}